target datalayout = "e-m:e-p270:32:32-p271:32:32-p272:64:64-i64:64-i128:128-f80:128-n8:16:32:64-S128"
target triple = "x86_64-unknown-linux-gnu"

%struct.EAConditionData = type { %union.pthread_cond_t }
%union.pthread_cond_t = type { %struct.__pthread_cond_s }
%struct.__pthread_cond_s = type { %union.__atomic_wide_counter, %union.__atomic_wide_counter, [2 x i32], [2 x i32], i32, i32, [2 x i32] }
%union.__atomic_wide_counter = type { i64 }
%"struct.EA::Thread::ConditionParameters" = type { i8, [16 x i8] }
%"class.EA::Thread::Condition" = type { %struct.EAConditionData }
%union.pthread_condattr_t = type { i32 }

@_ZN15EAConditionDataC1Ev = dso_local unnamed_addr alias void (ptr), ptr @_ZN15EAConditionDataC2Ev
@_ZN2EA6Thread19ConditionParametersC1EbPKc = dso_local unnamed_addr alias void (ptr, i1, ptr), ptr @_ZN2EA6Thread19ConditionParametersC2EbPKc

; Function Attrs: mustprogress nounwind uwtable
define dso_local noundef zeroext i1 @_ZN2EA6Thread9Condition4InitEPKNS0_19ConditionParametersE(ptr noundef nonnull align 8 dereferenceable(48) %this, ptr noundef %pConditionParameters) #1 align 2 {
entry:
  %retval = alloca i1, align 1
  %this.addr = alloca ptr, align 8
  %pConditionParameters.addr = alloca ptr, align 8
  %cattr = alloca %union.pthread_condattr_t, align 4
  %result = alloca i32, align 4
  store ptr %this, ptr %this.addr, align 8
  store ptr %pConditionParameters, ptr %pConditionParameters.addr, align 8
  %this1 = load ptr, ptr %this.addr, align 8
  %0 = load ptr, ptr %pConditionParameters.addr, align 8
  %tobool = icmp ne ptr %0, null
  br i1 %tobool, label %if.then, label %if.end8

if.then:                                          ; preds = %entry
  %call = call i32 @pthread_condattr_init(ptr noundef %cattr) #8
  %1 = load ptr, ptr %pConditionParameters.addr, align 8
  %mbIntraProcess = getelementptr inbounds %"struct.EA::Thread::ConditionParameters", ptr %1, i32 0, i32 0
  %2 = load i8, ptr %mbIntraProcess, align 1
  %tobool2 = trunc i8 %2 to i1
  br i1 %tobool2, label %if.then3, label %if.else

if.then3:                                         ; preds = %if.then
  %call4 = call i32 @pthread_condattr_setpshared(ptr noundef %cattr, i32 noundef 0) #8
  br label %if.end

if.else:                                          ; preds = %if.then
  %call5 = call i32 @pthread_condattr_setpshared(ptr noundef %cattr, i32 noundef 1) #8
  br label %if.end

if.end:                                           ; preds = %if.else, %if.then3
  %mConditionData = getelementptr inbounds %"class.EA::Thread::Condition", ptr %this1, i32 0, i32 0
  %mCV = getelementptr inbounds %struct.EAConditionData, ptr %mConditionData, i32 0, i32 0
  %call6 = call i32 @pthread_cond_init(ptr noundef %mCV, ptr noundef %cattr) #8
  store i32 %call6, ptr %result, align 4
  %call7 = call i32 @pthread_condattr_destroy(ptr noundef %cattr) #8
  %3 = load i32, ptr %result, align 4
  %cmp = icmp eq i32 %3, 0
  store i1 %cmp, ptr %retval, align 1
  br label %return

if.end8:                                          ; preds = %entry
  store i1 false, ptr %retval, align 1
  br label %return

return:                                           ; preds = %if.end8, %if.end
  %4 = load i1, ptr %retval, align 1
  ret i1 %4
}

; Function Attrs: mustprogress uwtable
define dso_local void @_ZN2EA6Thread9ConditionC2EPKNS0_19ConditionParametersEb(ptr noundef nonnull align 8 dereferenceable(48) %this, ptr noundef %pConditionParameters, i1 noundef zeroext %bDefaultParameters) unnamed_addr #3 align 2 {
entry:
  %this.addr = alloca ptr, align 8
  %pConditionParameters.addr = alloca ptr, align 8
  %bDefaultParameters.addr = alloca i8, align 1
  %parameters = alloca %"struct.EA::Thread::ConditionParameters", align 1
  store ptr %this, ptr %this.addr, align 8
  store ptr %pConditionParameters, ptr %pConditionParameters.addr, align 8
  %frombool = zext i1 %bDefaultParameters to i8
  store i8 %frombool, ptr %bDefaultParameters.addr, align 1
  %this1 = load ptr, ptr %this.addr, align 8
  %mConditionData = getelementptr inbounds %"class.EA::Thread::Condition", ptr %this1, i32 0, i32 0
  call void @_ZN15EAConditionDataC1Ev(ptr noundef nonnull align 8 dereferenceable(48) %mConditionData)
  %0 = load ptr, ptr %pConditionParameters.addr, align 8
  %tobool = icmp ne ptr %0, null
  br i1 %tobool, label %if.else, label %land.lhs.true

land.lhs.true:                                    ; preds = %entry
  %1 = load i8, ptr %bDefaultParameters.addr, align 1
  %tobool2 = trunc i8 %1 to i1
  br i1 %tobool2, label %if.then, label %if.else

if.then:                                          ; preds = %land.lhs.true
  call void @_ZN2EA6Thread19ConditionParametersC1EbPKc(ptr noundef nonnull align 1 dereferenceable(17) %parameters, i1 noundef zeroext true, ptr noundef null)
  %call = call noundef zeroext i1 @_ZN2EA6Thread9Condition4InitEPKNS0_19ConditionParametersE(ptr noundef nonnull align 8 dereferenceable(48) %this1, ptr noundef %parameters)
  br label %if.end

if.else:                                          ; preds = %land.lhs.true, %entry
  %2 = load ptr, ptr %pConditionParameters.addr, align 8
  %call3 = call noundef zeroext i1 @_ZN2EA6Thread9Condition4InitEPKNS0_19ConditionParametersE(ptr noundef nonnull align 8 dereferenceable(48) %this1, ptr noundef %2)
  br label %if.end

if.end:                                           ; preds = %if.else, %if.then
  ret void
}