; Function Attrs: mustprogress nounwind uwtable
define dso_local void @_ZN2EA6Thread9ConditionC2EPKNS0_19ConditionParametersEb(ptr noundef nonnull align 8 dereferenceable(48) initializes((0, 48)) %this, ptr noundef readonly %pConditionParameters, i1 noundef zeroext %bDefaultParameters) unnamed_addr #2 align 2 {
entry:
  %cattr.i6 = alloca %union.pthread_condattr_t, align 4
  %cattr.i = alloca %union.pthread_condattr_t, align 4
  tail call void @llvm.memset.p0.i64(ptr noundef nonnull align 8 dereferenceable(48) %this, i8 0, i64 48, i1 false)
  %tobool.not = icmp eq ptr %pConditionParameters, null
  br i1 %tobool.not, label %land.lhs.true, label %_ZN2EA6Thread9Condition4InitEPKNS0_19ConditionParametersE.exit

_ZN2EA6Thread9Condition4InitEPKNS0_19ConditionParametersE.exit: ; preds = %entry
  call void @llvm.lifetime.start.p0(i64 4, ptr nonnull %cattr.i)
  %call.i = call i32 @pthread_condattr_init(ptr noundef nonnull %cattr.i) #10
  %0 = load i8, ptr %pConditionParameters, align 1
  %1 = and i8 %0, 1
  %2 = xor i8 %1, 1
  %..i = zext nneg i8 %2 to i32
  %call5.i = call i32 @pthread_condattr_setpshared(ptr noundef nonnull %cattr.i, i32 noundef %..i) #10
  %call6.i = call i32 @pthread_cond_init(ptr noundef nonnull align 8 dereferenceable(48) %this, ptr noundef nonnull %cattr.i) #10
  %call7.i = call i32 @pthread_condattr_destroy(ptr noundef nonnull %cattr.i) #10
  call void @llvm.lifetime.end.p0(i64 4, ptr nonnull %cattr.i)
  br label %if.end

land.lhs.true:                                    ; preds = %entry
  br i1 %bDefaultParameters, label %if.then, label %if.end

if.then:                                          ; preds = %land.lhs.true
  call void @llvm.lifetime.start.p0(i64 4, ptr nonnull %cattr.i6)
  %call.i9 = call i32 @pthread_condattr_init(ptr noundef nonnull %cattr.i6) #10
  %call5.i11 = call i32 @pthread_condattr_setpshared(ptr noundef nonnull %cattr.i6, i32 noundef 0) #10
  %call6.i12 = call i32 @pthread_cond_init(ptr noundef nonnull align 8 dereferenceable(48) %this, ptr noundef nonnull %cattr.i6) #10
  %call7.i13 = call i32 @pthread_condattr_destroy(ptr noundef nonnull %cattr.i6) #10
  call void @llvm.lifetime.end.p0(i64 4, ptr nonnull %cattr.i6)
  br label %if.end

if.end:                                           ; preds = %land.lhs.true, %_ZN2EA6Thread9Condition4InitEPKNS0_19ConditionParametersE.exit, %if.then
  ret void
}